target datalayout = "e-m:e-p270:32:32-p271:32:32-p272:64:64-i64:64-i128:128-f80:128-n8:16:32:64-S128"
target triple = "x86_64-pc-linux-gnu"

@.str.10 = private unnamed_addr constant [12 x i8] c"psk_id_hash\00", align 1
@.str.11 = private unnamed_addr constant [10 x i8] c"info_hash\00", align 1
@.str.12 = private unnamed_addr constant [7 x i8] c"secret\00", align 1
@.str.13 = private unnamed_addr constant [4 x i8] c"key\00", align 1
@.str.14 = private unnamed_addr constant [11 x i8] c"base_nonce\00", align 1

; Function Attrs: nounwind null_pointer_is_valid sspstrong uwtable
define zeroext i16 @hpke_aead_nonce_len(i16 noundef zeroext %0) #5 {
  %2 = alloca i16, align 2
  %3 = alloca i16, align 2
  store i16 %0, ptr %3, align 2
  %4 = load i16, ptr %3, align 2
  %5 = zext i16 %4 to i32
  switch i32 %5, label %7 [
    i32 1, label %6
    i32 2, label %6
    i32 3, label %6
  ]

6:                                                ; preds = %1, %1, %1
  store i16 12, ptr %2, align 2
  br label %8

7:                                                ; preds = %1
  store i16 0, ptr %2, align 2
  br label %8

8:                                                ; preds = %7, %6
  %9 = load i16, ptr %2, align 2
  ret i16 %9
}

; Function Attrs: nounwind null_pointer_is_valid sspstrong uwtable
define zeroext i16 @hpke_aead_key_len(i16 noundef zeroext %0) #5 {
  %2 = alloca i16, align 2
  %3 = alloca i16, align 2
  store i16 %0, ptr %3, align 2
  %4 = load i16, ptr %3, align 2
  %5 = zext i16 %4 to i32
  switch i32 %5, label %9 [
    i32 1, label %6
    i32 2, label %7
    i32 3, label %8
  ]

6:                                                ; preds = %1
  store i16 16, ptr %2, align 2
  br label %10

7:                                                ; preds = %1
  store i16 32, ptr %2, align 2
  br label %10

8:                                                ; preds = %1
  store i16 32, ptr %2, align 2
  br label %10

9:                                                ; preds = %1
  store i16 0, ptr %2, align 2
  br label %10

10:                                               ; preds = %9, %8, %7, %6
  %11 = load i16, ptr %2, align 2
  ret i16 %11
}

; Function Attrs: nounwind null_pointer_is_valid sspstrong uwtable
define zeroext i16 @hpke_hkdf_len(i16 noundef zeroext %0) #5 {
  %2 = alloca i16, align 2
  %3 = alloca i16, align 2
  store i16 %0, ptr %3, align 2
  %4 = load i16, ptr %3, align 2
  %5 = zext i16 %4 to i32
  switch i32 %5, label %9 [
    i32 1, label %6
    i32 2, label %7
    i32 3, label %8
  ]

6:                                                ; preds = %1
  store i16 32, ptr %2, align 2
  br label %10

7:                                                ; preds = %1
  store i16 48, ptr %2, align 2
  br label %10

8:                                                ; preds = %1
  store i16 64, ptr %2, align 2
  br label %10

9:                                                ; preds = %1
  store i16 0, ptr %2, align 2
  br label %10

10:                                               ; preds = %9, %8, %7, %6
  %11 = load i16, ptr %2, align 2
  ret i16 %11
}

; Function Attrs: null_pointer_is_valid sspstrong uwtable
define i32 @hpke_key_schedule(i16 noundef zeroext %0, i16 noundef zeroext %1, ptr noundef %2, i32 noundef %3, ptr noundef %4, ptr noundef %5, i32 noundef %6, i8 noundef zeroext %7, ptr noundef %8, ptr noundef %9) #0 {
  %11 = alloca i32, align 4
  %12 = alloca i16, align 2
  %13 = alloca i16, align 2
  %14 = alloca ptr, align 8
  %15 = alloca i32, align 4
  %16 = alloca ptr, align 8
  %17 = alloca ptr, align 8
  %18 = alloca i32, align 4
  %19 = alloca i8, align 1
  %20 = alloca ptr, align 8
  %21 = alloca ptr, align 8
  %22 = alloca [64 x i8], align 16
  %23 = alloca [129 x i8], align 16
  %24 = alloca i64, align 8
  %25 = alloca i32, align 4
  %26 = alloca i32, align 4
  store i16 %0, ptr %12, align 2
  store i16 %1, ptr %13, align 2
  store ptr %2, ptr %14, align 8
  store i32 %3, ptr %15, align 4
  store ptr %4, ptr %16, align 8
  store ptr %5, ptr %17, align 8
  store i32 %6, ptr %18, align 4
  store i8 %7, ptr %19, align 1
  store ptr %8, ptr %20, align 8
  store ptr %9, ptr %21, align 8
  call void @llvm.lifetime.start.p0(i64 64, ptr %22) #9
  call void @llvm.lifetime.start.p0(i64 129, ptr %23) #9
  call void @llvm.lifetime.start.p0(i64 8, ptr %24) #9
  %27 = load i16, ptr %12, align 2
  %28 = call zeroext i16 @hpke_hkdf_len(i16 noundef zeroext %27)
  %29 = zext i16 %28 to i64
  store i64 %29, ptr %24, align 8
  %30 = load i8, ptr %19, align 1
  %31 = getelementptr [129 x i8], ptr %23, i64 0, i64 0
  store i8 %30, ptr %31, align 16
  call void @llvm.lifetime.start.p0(i64 4, ptr %25) #9
  %32 = load i16, ptr %12, align 2
  %33 = load ptr, ptr %16, align 8
  %34 = getelementptr inbounds [129 x i8], ptr %23, i64 0, i64 0
  %35 = getelementptr i8, ptr %34, i64 1
  %36 = call i32 @hpke_extract(i16 noundef zeroext %32, ptr noundef null, i32 noundef 0, ptr noundef %33, ptr noundef @.str.10, ptr noundef null, i32 noundef 0, ptr noundef %35)
  store i32 %36, ptr %25, align 4
  %37 = load i32, ptr %25, align 4
  %38 = icmp ne i32 %37, 0
  br i1 %38, label %39, label %41

39:                                               ; preds = %10
  %40 = load i32, ptr %25, align 4
  store i32 %40, ptr %11, align 4
  store i32 1, ptr %26, align 4
  br label %89

41:                                               ; preds = %10
  %42 = load i16, ptr %12, align 2
  %43 = load ptr, ptr %16, align 8
  %44 = load ptr, ptr %17, align 8
  %45 = load i32, ptr %18, align 4
  %46 = getelementptr inbounds [129 x i8], ptr %23, i64 0, i64 0
  %47 = getelementptr i8, ptr %46, i64 1
  %48 = load i64, ptr %24, align 8
  %49 = getelementptr i8, ptr %47, i64 %48
  %50 = call i32 @hpke_extract(i16 noundef zeroext %42, ptr noundef null, i32 noundef 0, ptr noundef %43, ptr noundef @.str.11, ptr noundef %44, i32 noundef %45, ptr noundef %49)
  store i32 %50, ptr %25, align 4
  %51 = load i32, ptr %25, align 4
  %52 = icmp ne i32 %51, 0
  br i1 %52, label %53, label %55

53:                                               ; preds = %41
  %54 = load i32, ptr %25, align 4
  store i32 %54, ptr %11, align 4
  store i32 1, ptr %26, align 4
  br label %89

55:                                               ; preds = %41
  %56 = load i16, ptr %12, align 2
  %57 = load ptr, ptr %14, align 8
  %58 = load i32, ptr %15, align 4
  %59 = load ptr, ptr %16, align 8
  %60 = getelementptr inbounds [64 x i8], ptr %22, i64 0, i64 0
  %61 = call i32 @hpke_extract(i16 noundef zeroext %56, ptr noundef %57, i32 noundef %58, ptr noundef %59, ptr noundef @.str.12, ptr noundef null, i32 noundef 0, ptr noundef %60)
  store i32 %61, ptr %25, align 4
  %62 = load i32, ptr %25, align 4
  %63 = icmp ne i32 %62, 0
  br i1 %63, label %64, label %66

64:                                               ; preds = %55
  %65 = load i32, ptr %25, align 4
  store i32 %65, ptr %11, align 4
  store i32 1, ptr %26, align 4
  br label %89

66:                                               ; preds = %55
  %67 = load i16, ptr %12, align 2
  %68 = getelementptr inbounds [64 x i8], ptr %22, i64 0, i64 0
  %69 = load ptr, ptr %16, align 8
  %70 = getelementptr inbounds [129 x i8], ptr %23, i64 0, i64 0
  %71 = load ptr, ptr %20, align 8
  %72 = load i16, ptr %13, align 2
  %73 = call zeroext i16 @hpke_aead_key_len(i16 noundef zeroext %72)
  %74 = call i32 @hpke_expand(i16 noundef zeroext %67, ptr noundef %68, ptr noundef %69, ptr noundef @.str.13, ptr noundef %70, ptr noundef %71, i16 noundef zeroext %73)
  store i32 %74, ptr %25, align 4
  %75 = load i32, ptr %25, align 4
  %76 = icmp ne i32 %75, 0
  br i1 %76, label %77, label %79

77:                                               ; preds = %66
  %78 = load i32, ptr %25, align 4
  store i32 %78, ptr %11, align 4
  store i32 1, ptr %26, align 4
  br label %89

79:                                               ; preds = %66
  %80 = load i16, ptr %12, align 2
  %81 = getelementptr inbounds [64 x i8], ptr %22, i64 0, i64 0
  %82 = load ptr, ptr %16, align 8
  %83 = getelementptr inbounds [129 x i8], ptr %23, i64 0, i64 0
  %84 = load ptr, ptr %21, align 8
  %85 = load i16, ptr %13, align 2
  %86 = call zeroext i16 @hpke_aead_nonce_len(i16 noundef zeroext %85)
  %87 = call i32 @hpke_expand(i16 noundef zeroext %80, ptr noundef %81, ptr noundef %82, ptr noundef @.str.14, ptr noundef %83, ptr noundef %84, i16 noundef zeroext %86)
  store i32 %87, ptr %25, align 4
  %88 = load i32, ptr %25, align 4
  store i32 %88, ptr %11, align 4
  store i32 1, ptr %26, align 4
  br label %89

89:                                               ; preds = %79, %77, %64, %53, %39
  call void @llvm.lifetime.end.p0(i64 4, ptr %25) #9
  call void @llvm.lifetime.end.p0(i64 8, ptr %24) #9
  call void @llvm.lifetime.end.p0(i64 129, ptr %23) #9
  call void @llvm.lifetime.end.p0(i64 64, ptr %22) #9
  %90 = load i32, ptr %11, align 4
  ret i32 %90
}