; Function Attrs: null_pointer_is_valid sspstrong uwtable
define i32 @hpke_key_schedule(i16 noundef zeroext %0, i16 noundef zeroext %1, ptr noundef %2, i32 noundef %3, ptr noundef %4, ptr noundef %5, i32 noundef %6, i8 noundef zeroext %7, ptr noundef %8, ptr noundef %9) local_unnamed_addr #0 {
hpke_hkdf_len.exit:
  %10 = alloca [64 x i8], align 16
  %11 = alloca [129 x i8], align 16
  call void @llvm.lifetime.start.p0(i64 64, ptr nonnull %10) #10
  call void @llvm.lifetime.start.p0(i64 129, ptr nonnull %11) #10
  store i8 %7, ptr %11, align 16
  %12 = getelementptr inbounds nuw i8, ptr %11, i64 1
  %13 = call i32 @hpke_extract(i16 noundef zeroext %0, ptr noundef null, i32 noundef 0, ptr noundef %4, ptr noundef nonnull @.str.10, ptr noundef null, i32 noundef 0, ptr noundef nonnull %12)
  %.not = icmp eq i32 %13, 0
  br i1 %.not, label %14, label %24

14:                                               ; preds = %hpke_hkdf_len.exit
  %switch.tableidx = add i16 %0, -1
  %15 = icmp ult i16 %switch.tableidx, 3
  %switch.idx.cast = zext i16 %switch.tableidx to i64
  %switch.idx.mult = shl nuw nsw i64 %switch.idx.cast, 4
  %switch.offset = add nuw nsw i64 %switch.idx.mult, 32
  %.0.i = select i1 %15, i64 %switch.offset, i64 0
  %16 = getelementptr i8, ptr %12, i64 %.0.i
  %17 = call i32 @hpke_extract(i16 noundef zeroext %0, ptr noundef null, i32 noundef 0, ptr noundef %4, ptr noundef nonnull @.str.11, ptr noundef %5, i32 noundef %6, ptr noundef %16)
  %.not34 = icmp eq i32 %17, 0
  br i1 %.not34, label %18, label %24

18:                                               ; preds = %14
  %19 = call i32 @hpke_extract(i16 noundef zeroext %0, ptr noundef %2, i32 noundef %3, ptr noundef %4, ptr noundef nonnull @.str.12, ptr noundef null, i32 noundef 0, ptr noundef nonnull %10)
  %.not35 = icmp eq i32 %19, 0
  br i1 %.not35, label %hpke_aead_key_len.exit, label %24

hpke_aead_key_len.exit:                           ; preds = %18
  %20 = icmp ult i16 %1, 4
  %switch.cast = zext i16 %1 to i64
  %switch.shiftamt = shl nuw nsw i64 %switch.cast, 4
  %switch.downshift = lshr i64 9007336694743040, %switch.shiftamt
  %switch.masked = trunc i64 %switch.downshift to i16
  %.0.i37 = select i1 %20, i16 %switch.masked, i16 0
  %21 = call fastcc i32 @hpke_expand(i16 noundef zeroext %0, ptr noundef nonnull %10, ptr noundef %4, ptr noundef nonnull @.str.13, ptr noundef nonnull %11, ptr noundef %8, i16 noundef zeroext %.0.i37)
  %.not36 = icmp eq i32 %21, 0
  br i1 %.not36, label %22, label %24

22:                                               ; preds = %hpke_aead_key_len.exit
  %.off.i = add i16 %1, -1
  %switch.i = icmp ult i16 %.off.i, 3
  %..i = select i1 %switch.i, i16 12, i16 0
  %23 = call fastcc i32 @hpke_expand(i16 noundef zeroext %0, ptr noundef nonnull %10, ptr noundef %4, ptr noundef nonnull @.str.14, ptr noundef nonnull %11, ptr noundef %9, i16 noundef zeroext %..i)
  br label %24

24:                                               ; preds = %hpke_aead_key_len.exit, %18, %14, %hpke_hkdf_len.exit, %22
  %.0 = phi i32 [ %23, %22 ], [ %13, %hpke_hkdf_len.exit ], [ %17, %14 ], [ %19, %18 ], [ %21, %hpke_aead_key_len.exit ]
  call void @llvm.lifetime.end.p0(i64 129, ptr nonnull %11) #10
  call void @llvm.lifetime.end.p0(i64 64, ptr nonnull %10) #10
  ret i32 %.0
}